target datalayout = "e-m:e-p270:32:32-p271:32:32-p272:64:64-i64:64-i128:128-f80:128-n8:16:32:64-S128"
target triple = "x86_64-pc-linux-gnu"

@mainctx = internal global ptr null, align 8
@.str.28 = private unnamed_addr constant [34 x i8] c"../openssl/test/evp_extra_test2.c\00", align 1
@.str.76 = private unnamed_addr constant [4 x i8] c"RSA\00", align 1
@.str.180 = private unnamed_addr constant [68 x i8] c"key = d2i_AutoPrivateKey_ex(NULL, &pdata, pdata_len, mainctx, NULL)\00", align 1
@.str.181 = private unnamed_addr constant [39 x i8] c"do_pkey_tofrom_data_select(key, \22RSA\22)\00", align 1

; Function Attrs: nounwind uwtable
define internal i32 @test_rsa_tofrom_data_select() #0 {
  %1 = alloca i32, align 4
  %2 = alloca ptr, align 8
  %3 = alloca ptr, align 8
  %4 = alloca i32, align 4
  call void @llvm.lifetime.start.p0(i64 4, ptr %1) #7
  call void @llvm.lifetime.start.p0(i64 8, ptr %2) #7
  store ptr null, ptr %2, align 8, !tbaa !13
  call void @llvm.lifetime.start.p0(i64 8, ptr %3) #7
  store ptr @kExampleRSAKeyDER, ptr %3, align 8, !tbaa !21
  call void @llvm.lifetime.start.p0(i64 4, ptr %4) #7
  store i32 608, ptr %4, align 4, !tbaa !11
  %5 = load i32, ptr %4, align 4, !tbaa !11
  %6 = sext i32 %5 to i64
  %7 = load ptr, ptr @mainctx, align 8, !tbaa !4
  %8 = call ptr @d2i_AutoPrivateKey_ex(ptr noundef null, ptr noundef %3, i64 noundef %6, ptr noundef %7, ptr noundef null)
  store ptr %8, ptr %2, align 8, !tbaa !13
  %9 = call i32 @test_ptr(ptr noundef @.str.28, i32 noundef 583, ptr noundef @.str.180, ptr noundef %8)
  %10 = icmp ne i32 %9, 0
  br i1 %10, label %11, label %18

11:                                               ; preds = %0
  %12 = load ptr, ptr %2, align 8, !tbaa !13
  %13 = call i32 @do_pkey_tofrom_data_select(ptr noundef %12, ptr noundef @.str.76)
  %14 = icmp ne i32 %13, 0
  %15 = zext i1 %14 to i32
  %16 = call i32 @test_true(ptr noundef @.str.28, i32 noundef 584, ptr noundef @.str.181, i32 noundef %15)
  %17 = icmp ne i32 %16, 0
  br label %18

18:                                               ; preds = %11, %0
  %19 = phi i1 [ false, %0 ], [ %17, %11 ]
  %20 = zext i1 %19 to i32
  store i32 %20, ptr %1, align 4, !tbaa !11
  %21 = load ptr, ptr %2, align 8, !tbaa !13
  call void @EVP_PKEY_free(ptr noundef %21)
  %22 = load i32, ptr %1, align 4, !tbaa !11
  call void @llvm.lifetime.end.p0(i64 4, ptr %4) #7
  call void @llvm.lifetime.end.p0(i64 8, ptr %3) #7
  call void @llvm.lifetime.end.p0(i64 8, ptr %2) #7
  call void @llvm.lifetime.end.p0(i64 4, ptr %1) #7
  ret i32 %22
}