; Function Attrs: nounwind uwtable
define internal range(i32 0, 2) i32 @test_rsa_tofrom_data_select() #0 {
  %1 = alloca ptr, align 8
  call void @llvm.lifetime.start.p0(i64 8, ptr nonnull %1) #7
  store ptr @kExampleRSAKeyDER, ptr %1, align 8, !tbaa !18
  %2 = load ptr, ptr @mainctx, align 8, !tbaa !4
  %3 = call ptr @d2i_AutoPrivateKey_ex(ptr noundef null, ptr noundef nonnull %1, i64 noundef 608, ptr noundef %2, ptr noundef null) #7
  %4 = call i32 @test_ptr(ptr noundef nonnull @.str.28, i32 noundef 583, ptr noundef nonnull @.str.180, ptr noundef %3) #7
  %.not = icmp eq i32 %4, 0
  br i1 %.not, label %10, label %5

5:                                                ; preds = %0
  %6 = call fastcc i32 @do_pkey_tofrom_data_select(ptr noundef %3, ptr noundef nonnull @.str.76)
  %7 = call i32 @test_true(ptr noundef nonnull @.str.28, i32 noundef 584, ptr noundef nonnull @.str.181, i32 noundef %6) #7
  %8 = icmp ne i32 %7, 0
  %9 = zext i1 %8 to i32
  br label %10

10:                                               ; preds = %5, %0
  %11 = phi i32 [ 0, %0 ], [ %9, %5 ]
  call void @EVP_PKEY_free(ptr noundef %3) #7
  call void @llvm.lifetime.end.p0(i64 8, ptr nonnull %1) #7
  ret i32 %11
}